target datalayout = "e-m:e-p270:32:32-p271:32:32-p272:64:64-i64:64-i128:128-f80:128-n8:16:32:64-S128"
target triple = "x86_64-unknown-linux-gnu"

; Function Attrs: mustprogress nounwind uwtable
define hidden noundef zeroext i8 @_ZN4llvh17isLegalUTF8StringEPPKhS1_(ptr noundef %source, ptr noundef %sourceEnd) #0 {
entry:
  %retval = alloca i8, align 1
  %source.addr = alloca ptr, align 8
  %sourceEnd.addr = alloca ptr, align 8
  %length = alloca i32, align 4
  store ptr %source, ptr %source.addr, align 8
  store ptr %sourceEnd, ptr %sourceEnd.addr, align 8
  br label %while.cond

while.cond:                                       ; preds = %if.end, %entry
  %0 = load ptr, ptr %source.addr, align 8
  %1 = load ptr, ptr %0, align 8
  %2 = load ptr, ptr %sourceEnd.addr, align 8
  %cmp = icmp ne ptr %1, %2
  br i1 %cmp, label %while.body, label %while.end

while.body:                                       ; preds = %while.cond
  %3 = load ptr, ptr %source.addr, align 8
  %4 = load ptr, ptr %3, align 8
  %5 = load i8, ptr %4, align 1
  %idxprom = zext i8 %5 to i64
  %arrayidx = getelementptr inbounds [256 x i8], ptr @_ZN4llvhL20trailingBytesForUTF8E, i64 0, i64 %idxprom
  %6 = load i8, ptr %arrayidx, align 1
  %conv = sext i8 %6 to i32
  %add = add nsw i32 %conv, 1
  store i32 %add, ptr %length, align 4
  %7 = load i32, ptr %length, align 4
  %conv1 = sext i32 %7 to i64
  %8 = load ptr, ptr %sourceEnd.addr, align 8
  %9 = load ptr, ptr %source.addr, align 8
  %10 = load ptr, ptr %9, align 8
  %sub.ptr.lhs.cast = ptrtoint ptr %8 to i64
  %sub.ptr.rhs.cast = ptrtoint ptr %10 to i64
  %sub.ptr.sub = sub i64 %sub.ptr.lhs.cast, %sub.ptr.rhs.cast
  %cmp2 = icmp sgt i64 %conv1, %sub.ptr.sub
  br i1 %cmp2, label %if.then, label %lor.lhs.false

lor.lhs.false:                                    ; preds = %while.body
  %11 = load ptr, ptr %source.addr, align 8
  %12 = load ptr, ptr %11, align 8
  %13 = load i32, ptr %length, align 4
  %call = call noundef zeroext i8 @_ZN4llvhL11isLegalUTF8EPKhi(ptr noundef %12, i32 noundef %13)
  %tobool = icmp ne i8 %call, 0
  br i1 %tobool, label %if.end, label %if.then

if.then:                                          ; preds = %lor.lhs.false, %while.body
  store i8 0, ptr %retval, align 1
  br label %return

if.end:                                           ; preds = %lor.lhs.false
  %14 = load i32, ptr %length, align 4
  %15 = load ptr, ptr %source.addr, align 8
  %16 = load ptr, ptr %15, align 8
  %idx.ext = sext i32 %14 to i64
  %add.ptr = getelementptr inbounds i8, ptr %16, i64 %idx.ext
  store ptr %add.ptr, ptr %15, align 8
  br label %while.cond, !llvm.loop !9

while.end:                                        ; preds = %while.cond
  store i8 1, ptr %retval, align 1
  br label %return

return:                                           ; preds = %while.end, %if.then
  %17 = load i8, ptr %retval, align 1
  ret i8 %17
}