; Function Attrs: mustprogress nofree norecurse nosync nounwind memory(read, argmem: readwrite, inaccessiblemem: none) uwtable
define hidden noundef zeroext range(i8 0, 2) i8 @_ZN4llvh17isLegalUTF8StringEPPKhS1_(ptr noundef captures(none) %source, ptr noundef %sourceEnd) local_unnamed_addr #3 {
entry:
  %source.promoted = load ptr, ptr %source, align 8
  %cmp.not8 = icmp eq ptr %source.promoted, %sourceEnd
  br i1 %cmp.not8, label %return, label %while.body.lr.ph

while.body.lr.ph:                                 ; preds = %entry
  %sub.ptr.lhs.cast = ptrtoint ptr %sourceEnd to i64
  br label %while.body

while.body:                                       ; preds = %while.body.lr.ph, %if.end
  %0 = phi ptr [ %source.promoted, %while.body.lr.ph ], [ %add.ptr, %if.end ]
  %1 = load i8, ptr %0, align 1
  %idxprom = zext i8 %1 to i64
  %arrayidx = getelementptr inbounds nuw [256 x i8], ptr @_ZN4llvhL20trailingBytesForUTF8E, i64 0, i64 %idxprom
  %2 = load i8, ptr %arrayidx, align 1
  %conv = sext i8 %2 to i32
  %add = add nsw i32 %conv, 1
  %conv1 = sext i32 %add to i64
  %sub.ptr.rhs.cast = ptrtoint ptr %0 to i64
  %sub.ptr.sub = sub i64 %sub.ptr.lhs.cast, %sub.ptr.rhs.cast
  %cmp2 = icmp slt i64 %sub.ptr.sub, %conv1
  br i1 %cmp2, label %return, label %lor.lhs.false

lor.lhs.false:                                    ; preds = %while.body
  %call = tail call fastcc noundef zeroext i8 @_ZN4llvhL11isLegalUTF8EPKhi(ptr noundef nonnull %0, i32 noundef %add)
  %tobool.not = icmp eq i8 %call, 0
  br i1 %tobool.not, label %return, label %if.end

if.end:                                           ; preds = %lor.lhs.false
  %add.ptr = getelementptr inbounds i8, ptr %0, i64 %conv1
  store ptr %add.ptr, ptr %source, align 8
  %cmp.not = icmp eq ptr %add.ptr, %sourceEnd
  br i1 %cmp.not, label %return, label %while.body, !llvm.loop !9

return:                                           ; preds = %lor.lhs.false, %while.body, %if.end, %entry
  %retval.0 = phi i8 [ 1, %entry ], [ 1, %if.end ], [ 0, %while.body ], [ 0, %lor.lhs.false ]
  ret i8 %retval.0
}